target datalayout = "e-m:e-p270:32:32-p271:32:32-p272:64:64-i64:64-i128:128-f80:128-n8:16:32:64-S128"
target triple = "x86_64-unknown-linux-gnu"

%"class.google::protobuf::io::GzipInputStream" = type { %"class.google::protobuf::io::ZeroCopyInputStream", i32, ptr, %struct.z_stream_s, i32, ptr, ptr, i64, i64 }
%"class.google::protobuf::io::ZeroCopyInputStream" = type { ptr }
%struct.z_stream_s = type { ptr, i32, i64, ptr, i32, i64, ptr, ptr, ptr, ptr, ptr, i32, i64, i64 }

; Function Attrs: mustprogress nounwind uwtable
define noundef i64 @_ZNK6google8protobuf2io15GzipInputStream9ByteCountEv(ptr noundef nonnull align 8 dereferenceable(176) %this) unnamed_addr #5 align 2 {
entry:
  %this.addr = alloca ptr, align 8
  %ret = alloca i64, align 8
  store ptr %this, ptr %this.addr, align 8
  %this1 = load ptr, ptr %this.addr, align 8
  %byte_count_ = getelementptr inbounds %"class.google::protobuf::io::GzipInputStream", ptr %this1, i32 0, i32 8
  %0 = load i64, ptr %byte_count_, align 8
  %zcontext_ = getelementptr inbounds %"class.google::protobuf::io::GzipInputStream", ptr %this1, i32 0, i32 3
  %total_out = getelementptr inbounds %struct.z_stream_s, ptr %zcontext_, i32 0, i32 5
  %1 = load i64, ptr %total_out, align 8
  %add = add i64 %0, %1
  store i64 %add, ptr %ret, align 8
  %zcontext_2 = getelementptr inbounds %"class.google::protobuf::io::GzipInputStream", ptr %this1, i32 0, i32 3
  %next_out = getelementptr inbounds %struct.z_stream_s, ptr %zcontext_2, i32 0, i32 3
  %2 = load ptr, ptr %next_out, align 8
  %cmp = icmp ne ptr %2, null
  br i1 %cmp, label %land.lhs.true, label %if.end

land.lhs.true:                                    ; preds = %entry
  %output_position_ = getelementptr inbounds %"class.google::protobuf::io::GzipInputStream", ptr %this1, i32 0, i32 6
  %3 = load ptr, ptr %output_position_, align 8
  %cmp3 = icmp ne ptr %3, null
  br i1 %cmp3, label %if.then, label %if.end

if.then:                                          ; preds = %land.lhs.true
  %zcontext_4 = getelementptr inbounds %"class.google::protobuf::io::GzipInputStream", ptr %this1, i32 0, i32 3
  %next_out5 = getelementptr inbounds %struct.z_stream_s, ptr %zcontext_4, i32 0, i32 3
  %4 = load ptr, ptr %next_out5, align 8
  %5 = ptrtoint ptr %4 to i64
  %output_position_6 = getelementptr inbounds %"class.google::protobuf::io::GzipInputStream", ptr %this1, i32 0, i32 6
  %6 = load ptr, ptr %output_position_6, align 8
  %7 = ptrtoint ptr %6 to i64
  %sub = sub i64 %5, %7
  %8 = load i64, ptr %ret, align 8
  %add7 = add i64 %8, %sub
  store i64 %add7, ptr %ret, align 8
  br label %if.end

if.end:                                           ; preds = %if.then, %land.lhs.true, %entry
  %9 = load i64, ptr %ret, align 8
  ret i64 %9
}