; Function Attrs: mustprogress nofree norecurse nosync nounwind willreturn memory(argmem: read) uwtable
define noundef i64 @_ZNK6google8protobuf2io15GzipInputStream9ByteCountEv(ptr nocapture noundef nonnull readonly align 8 dereferenceable(176) %this) unnamed_addr #11 align 2 {
entry:
  %byte_count_ = getelementptr inbounds i8, ptr %this, i64 168
  %0 = load i64, ptr %byte_count_, align 8
  %total_out = getelementptr inbounds i8, ptr %this, i64 64
  %1 = load i64, ptr %total_out, align 8
  %add = add i64 %1, %0
  %next_out = getelementptr inbounds i8, ptr %this, i64 48
  %2 = load ptr, ptr %next_out, align 8
  %cmp.not = icmp eq ptr %2, null
  br i1 %cmp.not, label %if.end, label %land.lhs.true

land.lhs.true:                                    ; preds = %entry
  %output_position_ = getelementptr inbounds i8, ptr %this, i64 152
  %3 = load ptr, ptr %output_position_, align 8
  %cmp3.not = icmp eq ptr %3, null
  br i1 %cmp3.not, label %if.end, label %if.then

if.then:                                          ; preds = %land.lhs.true
  %4 = ptrtoint ptr %2 to i64
  %5 = ptrtoint ptr %3 to i64
  %sub = add i64 %add, %4
  %add7 = sub i64 %sub, %5
  br label %if.end

if.end:                                           ; preds = %if.then, %land.lhs.true, %entry
  %ret.0 = phi i64 [ %add7, %if.then ], [ %add, %land.lhs.true ], [ %add, %entry ]
  ret i64 %ret.0
}